; Function Attrs: mustprogress nofree norecurse nosync nounwind willreturn memory(argmem: read) uwtable
define range(i32 0, 2) i32 @ossl_quic_channel_is_active(ptr noundef readonly captures(address_is_null) %0) local_unnamed_addr #6 {
  %.not = icmp eq ptr %0, null
  br i1 %.not, label %8, label %2

2:                                                ; preds = %1
  %3 = getelementptr inbounds nuw i8, ptr %0, i64 1568
  %4 = load i64, ptr %3, align 8
  %5 = and i64 %4, 7
  %6 = icmp eq i64 %5, 1
  %7 = zext i1 %6 to i32
  br label %8

8:                                                ; preds = %2, %1
  %9 = phi i32 [ 0, %1 ], [ %7, %2 ]
  ret i32 %9
}